; Function Attrs: mustprogress nounwind uwtable
define hidden noundef i32 @_ZNK4ncnn12TanH_x86_avx15forward_inplaceERNS_3MatERKNS_6OptionE(ptr nonnull readnone align 8 captures(none) %0, ptr noundef nonnull align 8 dereferenceable(72) %1, ptr noundef nonnull readonly align 8 captures(none) dereferenceable(64) %2) unnamed_addr #3 align 2 {
  %4 = alloca i32, align 4
  %5 = alloca i32, align 4
  %6 = tail call i32 @__kmpc_global_thread_num(ptr nonnull @2)
  %7 = getelementptr inbounds nuw i8, ptr %1, i64 44
  %8 = load i32, ptr %7, align 4, !tbaa !4
  %9 = getelementptr inbounds nuw i8, ptr %1, i64 48
  %10 = load i32, ptr %9, align 8, !tbaa !13
  %11 = getelementptr inbounds nuw i8, ptr %1, i64 52
  %12 = load i32, ptr %11, align 4, !tbaa !14
  call void @llvm.lifetime.start.p0(i64 4, ptr nonnull %4) #7
  %13 = getelementptr inbounds nuw i8, ptr %1, i64 56
  %14 = load i32, ptr %13, align 8, !tbaa !15
  store i32 %14, ptr %4, align 4, !tbaa !16
  %15 = getelementptr inbounds nuw i8, ptr %1, i64 24
  %16 = load i32, ptr %15, align 8, !tbaa !17
  call void @llvm.lifetime.start.p0(i64 4, ptr nonnull %5) #7
  %17 = mul nsw i32 %10, %8
  %18 = mul nsw i32 %17, %12
  %19 = mul nsw i32 %18, %16
  store i32 %19, ptr %5, align 4, !tbaa !16
  %20 = getelementptr inbounds nuw i8, ptr %2, i64 4
  %21 = load i32, ptr %20, align 4, !tbaa !18
  tail call void @__kmpc_push_num_threads(ptr nonnull @2, i32 %6, i32 %21)
  call void (ptr, i32, ptr, ...) @__kmpc_fork_call(ptr nonnull @2, i32 3, ptr nonnull @_ZNK4ncnn12TanH_x86_avx15forward_inplaceERNS_3MatERKNS_6OptionE.omp_outlined, ptr nonnull %4, ptr nonnull %1, ptr nonnull %5)
  call void @llvm.lifetime.end.p0(i64 4, ptr nonnull %5) #7
  call void @llvm.lifetime.end.p0(i64 4, ptr nonnull %4) #7
  ret i32 0
}